target datalayout = "e-m:e-p270:32:32-p271:32:32-p272:64:64-i64:64-i128:128-f80:128-n8:16:32:64-S128"
target triple = "x86_64-unknown-linux-gnu"

%"struct.Imf_3_2::Chromaticities" = type { %"class.Imath_3_2::Vec2", %"class.Imath_3_2::Vec2", %"class.Imath_3_2::Vec2", %"class.Imath_3_2::Vec2" }
%"class.Imath_3_2::Vec2" = type { float, float }

@_ZZN7Imf_3_218acesChromaticitiesEvE7acesChr = internal global %"struct.Imf_3_2::Chromaticities" zeroinitializer, align 4
@_ZGVZN7Imf_3_218acesChromaticitiesEvE7acesChr = internal global i64 0, align 8

; Function Attrs: mustprogress nounwind uwtable
define linkonce_odr hidden void @_ZN9Imath_3_24Vec2IfEC2Eff(ptr noundef nonnull align 4 dereferenceable(8) %this, float noundef %a, float noundef %b) unnamed_addr #5 comdat align 2 {
entry:
  %this.addr = alloca ptr, align 8
  %a.addr = alloca float, align 4
  %b.addr = alloca float, align 4
  store ptr %this, ptr %this.addr, align 8
  store float %a, ptr %a.addr, align 4
  store float %b, ptr %b.addr, align 4
  %this1 = load ptr, ptr %this.addr, align 8
  %x = getelementptr inbounds %"class.Imath_3_2::Vec2", ptr %this1, i32 0, i32 0
  %0 = load float, ptr %a.addr, align 4
  store float %0, ptr %x, align 4
  %y = getelementptr inbounds %"class.Imath_3_2::Vec2", ptr %this1, i32 0, i32 1
  %1 = load float, ptr %b.addr, align 4
  store float %1, ptr %y, align 4
  ret void
}

; Function Attrs: mustprogress uwtable
define hidden noundef nonnull align 4 dereferenceable(32) ptr @_ZN7Imf_3_218acesChromaticitiesEv() #4 personality ptr @__gxx_personality_v0 {
entry:
  %ref.tmp = alloca %"class.Imath_3_2::Vec2", align 4
  %ref.tmp1 = alloca %"class.Imath_3_2::Vec2", align 4
  %ref.tmp2 = alloca %"class.Imath_3_2::Vec2", align 4
  %ref.tmp3 = alloca %"class.Imath_3_2::Vec2", align 4
  %exn.slot = alloca ptr, align 8
  %ehselector.slot = alloca i32, align 4
  %0 = load atomic i8, ptr @_ZGVZN7Imf_3_218acesChromaticitiesEvE7acesChr acquire, align 8
  %guard.uninitialized = icmp eq i8 %0, 0
  br i1 %guard.uninitialized, label %init.check, label %init.end, !prof !4

init.check:                                       ; preds = %entry
  %1 = call i32 @__cxa_guard_acquire(ptr @_ZGVZN7Imf_3_218acesChromaticitiesEvE7acesChr) #3
  %tobool = icmp ne i32 %1, 0
  br i1 %tobool, label %init, label %init.end

init:                                             ; preds = %init.check
  call void @_ZN9Imath_3_24Vec2IfEC2Eff(ptr noundef nonnull align 4 dereferenceable(8) %ref.tmp, float noundef 0x3FE782A9A0000000, float noundef 0x3FD0FAACE0000000) #3
  call void @_ZN9Imath_3_24Vec2IfEC2Eff(ptr noundef nonnull align 4 dereferenceable(8) %ref.tmp1, float noundef 0.000000e+00, float noundef 1.000000e+00) #3
  call void @_ZN9Imath_3_24Vec2IfEC2Eff(ptr noundef nonnull align 4 dereferenceable(8) %ref.tmp2, float noundef 0x3F1A36E2E0000000, float noundef 0xBFB3B645A0000000) #3
  call void @_ZN9Imath_3_24Vec2IfEC2Eff(ptr noundef nonnull align 4 dereferenceable(8) %ref.tmp3, float noundef 0x3FD49667C0000000, float noundef 0x3FD59C62A0000000) #3
  invoke void @_ZN7Imf_3_214ChromaticitiesC1ERKN9Imath_3_24Vec2IfEES5_S5_S5_(ptr noundef nonnull align 4 dereferenceable(32) @_ZZN7Imf_3_218acesChromaticitiesEvE7acesChr, ptr noundef nonnull align 4 dereferenceable(8) %ref.tmp, ptr noundef nonnull align 4 dereferenceable(8) %ref.tmp1, ptr noundef nonnull align 4 dereferenceable(8) %ref.tmp2, ptr noundef nonnull align 4 dereferenceable(8) %ref.tmp3)
          to label %invoke.cont unwind label %lpad

invoke.cont:                                      ; preds = %init
  call void @__cxa_guard_release(ptr @_ZGVZN7Imf_3_218acesChromaticitiesEvE7acesChr) #3
  br label %init.end

init.end:                                         ; preds = %invoke.cont, %init.check, %entry
  ret ptr @_ZZN7Imf_3_218acesChromaticitiesEvE7acesChr

lpad:                                             ; preds = %init
  %2 = landingpad { ptr, i32 }
          cleanup
  %3 = extractvalue { ptr, i32 } %2, 0
  store ptr %3, ptr %exn.slot, align 8
  %4 = extractvalue { ptr, i32 } %2, 1
  store i32 %4, ptr %ehselector.slot, align 4
  call void @__cxa_guard_abort(ptr @_ZGVZN7Imf_3_218acesChromaticitiesEvE7acesChr) #3
  br label %eh.resume

eh.resume:                                        ; preds = %lpad
  %exn = load ptr, ptr %exn.slot, align 8
  %sel = load i32, ptr %ehselector.slot, align 4
  %lpad.val = insertvalue { ptr, i32 } poison, ptr %exn, 0
  %lpad.val4 = insertvalue { ptr, i32 } %lpad.val, i32 %sel, 1
  resume { ptr, i32 } %lpad.val4
}