; Function Attrs: mustprogress uwtable
define hidden noundef nonnull align 4 dereferenceable(32) ptr @_ZN7Imf_3_218acesChromaticitiesEv() local_unnamed_addr #3 personality ptr @__gxx_personality_v0 {
entry:
  %ref.tmp = alloca %"class.Imath_3_2::Vec2", align 8
  %ref.tmp1 = alloca %"class.Imath_3_2::Vec2", align 8
  %ref.tmp2 = alloca %"class.Imath_3_2::Vec2", align 8
  %ref.tmp3 = alloca %"class.Imath_3_2::Vec2", align 8
  %0 = load atomic i8, ptr @_ZGVZN7Imf_3_218acesChromaticitiesEvE7acesChr acquire, align 8
  %guard.uninitialized = icmp eq i8 %0, 0
  br i1 %guard.uninitialized, label %init.check, label %init.end, !prof !4

init.check:                                       ; preds = %entry
  %1 = tail call i32 @__cxa_guard_acquire(ptr nonnull @_ZGVZN7Imf_3_218acesChromaticitiesEvE7acesChr) #13
  %tobool.not = icmp eq i32 %1, 0
  br i1 %tobool.not, label %init.end, label %init

init:                                             ; preds = %init.check
  store <2 x float> <float 0x3FE782A9A0000000, float 0x3FD0FAACE0000000>, ptr %ref.tmp, align 8
  store <2 x float> <float 0.000000e+00, float 1.000000e+00>, ptr %ref.tmp1, align 8
  store <2 x float> <float 0x3F1A36E2E0000000, float 0xBFB3B645A0000000>, ptr %ref.tmp2, align 8
  store <2 x float> <float 0x3FD49667C0000000, float 0x3FD59C62A0000000>, ptr %ref.tmp3, align 8
  invoke void @_ZN7Imf_3_214ChromaticitiesC1ERKN9Imath_3_24Vec2IfEES5_S5_S5_(ptr noundef nonnull align 4 dereferenceable(32) @_ZZN7Imf_3_218acesChromaticitiesEvE7acesChr, ptr noundef nonnull align 4 dereferenceable(8) %ref.tmp, ptr noundef nonnull align 4 dereferenceable(8) %ref.tmp1, ptr noundef nonnull align 4 dereferenceable(8) %ref.tmp2, ptr noundef nonnull align 4 dereferenceable(8) %ref.tmp3)
          to label %invoke.cont unwind label %lpad

invoke.cont:                                      ; preds = %init
  call void @__cxa_guard_release(ptr nonnull @_ZGVZN7Imf_3_218acesChromaticitiesEvE7acesChr) #13
  br label %init.end

init.end:                                         ; preds = %invoke.cont, %init.check, %entry
  ret ptr @_ZZN7Imf_3_218acesChromaticitiesEvE7acesChr

lpad:                                             ; preds = %init
  %2 = landingpad { ptr, i32 }
          cleanup
  call void @__cxa_guard_abort(ptr nonnull @_ZGVZN7Imf_3_218acesChromaticitiesEvE7acesChr) #13
  resume { ptr, i32 } %2
}